#include <math.h>
#include <stdio.h>
#include <stdlib.h>
#include <string.h>

int main()
{
	int n, k, i, a[1000], j, q;
	scanf("%d%d", &n, &k);
	for (i = 1; i <= n; i++) {
		scanf("%d", &a[i]);
	}
	for (i = 1; i <= n; i++) {
		for (j = 1; j <= n; j++) {
			q = a[i] + a[j];
			if (q == k)
				break;
			else
				q = 0;
		}
		if (q == k)
			break;
	}
	if (q == k)
		printf("yes");
	else
		printf("no");
	return 0;
}